target datalayout = "e-m:e-p270:32:32-p271:32:32-p272:64:64-i64:64-i128:128-f80:128-n8:16:32:64-S128"
target triple = "x86_64-pc-linux-gnu"

%struct._zend_executor_globals = type { %struct._zval_struct, %struct._zval_struct, [32 x ptr], ptr, ptr, %struct._zend_array, %struct._zend_array, ptr, i32, i8, %struct._zval_struct, i32, ptr, ptr, ptr, ptr, ptr, ptr, i64, ptr, ptr, i32, ptr, i32, i64, i32, i32, i32, i8, i8, %struct.zend_atomic_bool_s, %struct.zend_atomic_bool_s, ptr, i64, ptr, ptr, %struct._zend_array, %struct._zend_array, i32, i8, %struct._zval_struct, %struct._zval_struct, %struct._zend_stack, %struct._zend_stack, %struct._zend_stack, ptr, i32, i32, i64, ptr, ptr, ptr, %struct._zend_objects_store, %struct._zend_lazy_objects_store, ptr, ptr, ptr, [3 x %struct._zend_op], ptr, i8, i8, i64, i32, i32, ptr, [16 x %struct._HashTableIterator], ptr, %union._zend_function, %struct._zend_op, %struct._zend_array, i64, %struct.zend_get_gc_buffer, ptr, ptr, ptr, i64, i8, i32, ptr, ptr, i64, %struct._zend_call_stack, i64, i64, %struct._zend_strtod_state, [6 x ptr] }
%struct.zend_atomic_bool_s = type { i8 }
%struct._zval_struct = type { %union._zend_value, %union.anon.9, %union.anon.12 }
%union._zend_value = type { i64 }
%union.anon.9 = type { i32 }
%union.anon.12 = type { i32 }
%struct._zend_stack = type { i32, i32, i32, ptr }
%struct._zend_objects_store = type { ptr, i32, i32, i32 }
%struct._zend_lazy_objects_store = type { %struct._zend_array }
%struct._HashTableIterator = type { ptr, i32, i32 }
%union._zend_function = type { %struct._zend_op_array }
%struct._zend_op_array = type { i8, [3 x i8], i32, ptr, ptr, ptr, i32, i32, ptr, ptr, ptr, ptr, i32, ptr, i32, i32, i32, ptr, ptr, ptr, ptr, ptr, i32, i32, ptr, ptr, ptr, i32, i32, i32, i32, ptr, ptr, [6 x ptr] }
%struct._zend_op = type { ptr, %union._znode_op, %union._znode_op, %union._znode_op, i32, i32, i8, i8, i8, i8 }
%union._znode_op = type { i32 }
%struct._zend_array = type { %struct._zend_refcounted_h, %union.anon.1, i32, %union.anon.2, i32, i32, i32, i32, i64, ptr }
%struct._zend_refcounted_h = type { i32, %union.anon.0 }
%union.anon.0 = type { i32 }
%union.anon.1 = type { i32 }
%union.anon.2 = type { ptr }
%struct.zend_get_gc_buffer = type { ptr, ptr, ptr }
%struct._zend_call_stack = type { ptr, i64 }
%struct._zend_strtod_state = type { [8 x ptr], ptr, ptr }
%struct._zend_execute_data = type { ptr, ptr, ptr, ptr, %struct._zval_struct, ptr, ptr, ptr, ptr }

@.str.1 = private unnamed_addr constant [2 x i8] c"l\00", align 1
@executor_globals = external global %struct._zend_executor_globals, align 8
@.str.2 = private unnamed_addr constant [9 x i8] c"abstract\00", align 1
@.str.3 = private unnamed_addr constant [6 x i8] c"final\00", align 1
@.str.4 = private unnamed_addr constant [8 x i8] c"virtual\00", align 1
@.str.5 = private unnamed_addr constant [7 x i8] c"public\00", align 1
@.str.6 = private unnamed_addr constant [8 x i8] c"private\00", align 1
@.str.7 = private unnamed_addr constant [10 x i8] c"protected\00", align 1
@zend_known_strings = external global ptr, align 8
@.str.8 = private unnamed_addr constant [9 x i8] c"readonly\00", align 1

; Function Attrs: nounwind uwtable
define hidden void @zim_Reflection_getModifierNames(ptr noundef %0, ptr noundef %1) #0 {
  %3 = alloca ptr, align 8
  %4 = alloca ptr, align 8
  %5 = alloca i64, align 8
  %6 = alloca i32, align 4
  %7 = alloca ptr, align 8
  %8 = alloca ptr, align 8
  store ptr %0, ptr %3, align 8, !tbaa !47
  store ptr %1, ptr %4, align 8, !tbaa !9
  call void @llvm.lifetime.start.p0(i64 8, ptr %5) #14
  %9 = load ptr, ptr %3, align 8, !tbaa !47
  %10 = getelementptr inbounds nuw %struct._zend_execute_data, ptr %9, i32 0, i32 4
  %11 = getelementptr inbounds nuw %struct._zval_struct, ptr %10, i32 0, i32 2
  %12 = load i32, ptr %11, align 4, !tbaa !29
  %13 = call i32 (i32, ptr, ...) @zend_parse_parameters(i32 noundef %12, ptr noundef @.str.1, ptr noundef %5)
  %14 = icmp eq i32 %13, -1
  br i1 %14, label %15, label %21

15:                                               ; preds = %2
  br label %16

16:                                               ; preds = %15
  %17 = load ptr, ptr getelementptr inbounds nuw (%struct._zend_executor_globals, ptr @executor_globals, i32 0, i32 54), align 8, !tbaa !49
  %18 = icmp ne ptr %17, null
  call void @llvm.assume(i1 %18)
  store i32 1, ptr %6, align 4
  br label %82

19:                                               ; No predecessors!
  br label %20

20:                                               ; preds = %19
  br label %21

21:                                               ; preds = %20, %2
  br label %22

22:                                               ; preds = %21
  call void @llvm.lifetime.start.p0(i64 8, ptr %7) #14
  %23 = call ptr @_zend_new_array_0()
  store ptr %23, ptr %7, align 8, !tbaa !73
  call void @llvm.lifetime.start.p0(i64 8, ptr %8) #14
  %24 = load ptr, ptr %4, align 8, !tbaa !9
  store ptr %24, ptr %8, align 8, !tbaa !9
  %25 = load ptr, ptr %7, align 8, !tbaa !73
  %26 = load ptr, ptr %8, align 8, !tbaa !9
  %27 = getelementptr inbounds nuw %struct._zval_struct, ptr %26, i32 0, i32 0
  store ptr %25, ptr %27, align 8, !tbaa !29
  %28 = load ptr, ptr %8, align 8, !tbaa !9
  %29 = getelementptr inbounds nuw %struct._zval_struct, ptr %28, i32 0, i32 1
  store i32 775, ptr %29, align 8, !tbaa !29
  call void @llvm.lifetime.end.p0(i64 8, ptr %8) #14
  call void @llvm.lifetime.end.p0(i64 8, ptr %7) #14
  br label %30

30:                                               ; preds = %22
  br label %31

31:                                               ; preds = %30
  %32 = load i64, ptr %5, align 8, !tbaa !74
  %33 = and i64 %32, 64
  %34 = icmp ne i64 %33, 0
  br i1 %34, label %35, label %38

35:                                               ; preds = %31
  %36 = load ptr, ptr %4, align 8, !tbaa !9
  %37 = call i32 @add_next_index_stringl(ptr noundef %36, ptr noundef @.str.2, i64 noundef 8)
  br label %38

38:                                               ; preds = %35, %31
  %39 = load i64, ptr %5, align 8, !tbaa !74
  %40 = and i64 %39, 32
  %41 = icmp ne i64 %40, 0
  br i1 %41, label %42, label %45

42:                                               ; preds = %38
  %43 = load ptr, ptr %4, align 8, !tbaa !9
  %44 = call i32 @add_next_index_stringl(ptr noundef %43, ptr noundef @.str.3, i64 noundef 5)
  br label %45

45:                                               ; preds = %42, %38
  %46 = load i64, ptr %5, align 8, !tbaa !74
  %47 = and i64 %46, 512
  %48 = icmp ne i64 %47, 0
  br i1 %48, label %49, label %52

49:                                               ; preds = %45
  %50 = load ptr, ptr %4, align 8, !tbaa !9
  %51 = call i32 @add_next_index_stringl(ptr noundef %50, ptr noundef @.str.4, i64 noundef 7)
  br label %52

52:                                               ; preds = %49, %45
  %53 = load i64, ptr %5, align 8, !tbaa !74
  %54 = and i64 %53, 7
  switch i64 %54, label %64 [
    i64 1, label %55
    i64 4, label %58
    i64 2, label %61
  ]

55:                                               ; preds = %52
  %56 = load ptr, ptr %4, align 8, !tbaa !9
  %57 = call i32 @add_next_index_stringl(ptr noundef %56, ptr noundef @.str.5, i64 noundef 6)
  br label %64

58:                                               ; preds = %52
  %59 = load ptr, ptr %4, align 8, !tbaa !9
  %60 = call i32 @add_next_index_stringl(ptr noundef %59, ptr noundef @.str.6, i64 noundef 7)
  br label %64

61:                                               ; preds = %52
  %62 = load ptr, ptr %4, align 8, !tbaa !9
  %63 = call i32 @add_next_index_stringl(ptr noundef %62, ptr noundef @.str.7, i64 noundef 9)
  br label %64

64:                                               ; preds = %52, %61, %58, %55
  %65 = load i64, ptr %5, align 8, !tbaa !74
  %66 = and i64 %65, 16
  %67 = icmp ne i64 %66, 0
  br i1 %67, label %68, label %74

68:                                               ; preds = %64
  %69 = load ptr, ptr %4, align 8, !tbaa !9
  %70 = load ptr, ptr @zend_known_strings, align 8, !tbaa !75
  %71 = getelementptr inbounds ptr, ptr %70, i64 19
  %72 = load ptr, ptr %71, align 8, !tbaa !38
  %73 = call i32 @add_next_index_str(ptr noundef %69, ptr noundef %72)
  br label %74

74:                                               ; preds = %68, %64
  %75 = load i64, ptr %5, align 8, !tbaa !74
  %76 = and i64 %75, 65664
  %77 = icmp ne i64 %76, 0
  br i1 %77, label %78, label %81

78:                                               ; preds = %74
  %79 = load ptr, ptr %4, align 8, !tbaa !9
  %80 = call i32 @add_next_index_stringl(ptr noundef %79, ptr noundef @.str.8, i64 noundef 8)
  br label %81

81:                                               ; preds = %78, %74
  store i32 0, ptr %6, align 4
  br label %82

82:                                               ; preds = %81, %16
  call void @llvm.lifetime.end.p0(i64 8, ptr %5) #14
  %83 = load i32, ptr %6, align 4
  switch i32 %83, label %85 [
    i32 0, label %84
    i32 1, label %84
  ]

84:                                               ; preds = %82, %82
  ret void

85:                                               ; preds = %82
  unreachable
}