; Function Attrs: nounwind uwtable
define hidden void @zim_Reflection_getModifierNames(ptr noundef readonly captures(none) %0, ptr noundef %1) #0 {
  %3 = alloca i64, align 8
  call void @llvm.lifetime.start.p0(i64 8, ptr nonnull %3) #13
  %4 = getelementptr inbounds nuw i8, ptr %0, i64 44
  %5 = load i32, ptr %4, align 4, !tbaa !26
  %6 = call i32 (i32, ptr, ...) @zend_parse_parameters(i32 noundef %5, ptr noundef nonnull @.str.1, ptr noundef nonnull %3) #13
  %7 = icmp eq i32 %6, -1
  br i1 %7, label %8, label %11

8:                                                ; preds = %2
  %9 = load ptr, ptr getelementptr inbounds nuw (i8, ptr @executor_globals, i64 960), align 8, !tbaa !39
  %10 = icmp ne ptr %9, null
  call void @llvm.assume(i1 %10)
  br label %50

11:                                               ; preds = %2
  %12 = call ptr @_zend_new_array_0() #13
  store ptr %12, ptr %1, align 8, !tbaa !26
  %13 = getelementptr inbounds nuw i8, ptr %1, i64 8
  store i32 775, ptr %13, align 8, !tbaa !26
  %14 = load i64, ptr %3, align 8, !tbaa !65
  %15 = and i64 %14, 64
  %.not = icmp eq i64 %15, 0
  br i1 %.not, label %18, label %16

16:                                               ; preds = %11
  %17 = call i32 @add_next_index_stringl(ptr noundef nonnull %1, ptr noundef nonnull @.str.2, i64 noundef 8) #13
  %.pre = load i64, ptr %3, align 8, !tbaa !65
  br label %18

18:                                               ; preds = %16, %11
  %19 = phi i64 [ %.pre, %16 ], [ %14, %11 ]
  %20 = and i64 %19, 32
  %.not13 = icmp eq i64 %20, 0
  br i1 %.not13, label %23, label %21

21:                                               ; preds = %18
  %22 = call i32 @add_next_index_stringl(ptr noundef nonnull %1, ptr noundef nonnull @.str.3, i64 noundef 5) #13
  %.pre17 = load i64, ptr %3, align 8, !tbaa !65
  br label %23

23:                                               ; preds = %21, %18
  %24 = phi i64 [ %.pre17, %21 ], [ %19, %18 ]
  %25 = and i64 %24, 512
  %.not14 = icmp eq i64 %25, 0
  br i1 %.not14, label %28, label %26

26:                                               ; preds = %23
  %27 = call i32 @add_next_index_stringl(ptr noundef nonnull %1, ptr noundef nonnull @.str.4, i64 noundef 7) #13
  %.pre18 = load i64, ptr %3, align 8, !tbaa !65
  br label %28

28:                                               ; preds = %26, %23
  %29 = phi i64 [ %.pre18, %26 ], [ %24, %23 ]
  %30 = and i64 %29, 7
  switch i64 %30, label %37 [
    i64 1, label %31
    i64 4, label %33
    i64 2, label %35
  ]

31:                                               ; preds = %28
  %32 = call i32 @add_next_index_stringl(ptr noundef nonnull %1, ptr noundef nonnull @.str.5, i64 noundef 6) #13
  br label %37

33:                                               ; preds = %28
  %34 = call i32 @add_next_index_stringl(ptr noundef nonnull %1, ptr noundef nonnull @.str.6, i64 noundef 7) #13
  br label %37

35:                                               ; preds = %28
  %36 = call i32 @add_next_index_stringl(ptr noundef nonnull %1, ptr noundef nonnull @.str.7, i64 noundef 9) #13
  br label %37

37:                                               ; preds = %35, %33, %31, %28
  %38 = load i64, ptr %3, align 8, !tbaa !65
  %39 = and i64 %38, 16
  %.not15 = icmp eq i64 %39, 0
  br i1 %.not15, label %45, label %40

40:                                               ; preds = %37
  %41 = load ptr, ptr @zend_known_strings, align 8, !tbaa !66
  %42 = getelementptr inbounds nuw i8, ptr %41, i64 152
  %43 = load ptr, ptr %42, align 8, !tbaa !68
  %44 = call i32 @add_next_index_str(ptr noundef nonnull %1, ptr noundef %43) #13
  %.pre19 = load i64, ptr %3, align 8, !tbaa !65
  br label %45

45:                                               ; preds = %40, %37
  %46 = phi i64 [ %.pre19, %40 ], [ %38, %37 ]
  %47 = and i64 %46, 65664
  %.not16 = icmp eq i64 %47, 0
  br i1 %.not16, label %50, label %48

48:                                               ; preds = %45
  %49 = call i32 @add_next_index_stringl(ptr noundef nonnull %1, ptr noundef nonnull @.str.8, i64 noundef 8) #13
  br label %50

50:                                               ; preds = %45, %48, %8
  call void @llvm.lifetime.end.p0(i64 8, ptr nonnull %3) #13
  ret void
}